target datalayout = "e-m:e-p270:32:32-p271:32:32-p272:64:64-i64:64-i128:128-f80:128-n8:16:32:64-S128"
target triple = "x86_64-pc-linux-gnu"

@UseJVMCINativeLibrary = external global i8, align 1

; Function Attrs: mustprogress nounwind uwtable
define hidden noundef zeroext i1 @_ZN5JVMCI20can_initialize_JVMCIEv() #1 align 2 {
  %1 = alloca i1, align 1
  %2 = load i8, ptr @UseJVMCINativeLibrary, align 1
  %3 = trunc i8 %2 to i1
  br i1 %3, label %4, label %5

4:                                                ; preds = %0
  store i1 true, ptr %1, align 1
  br label %10

5:                                                ; preds = %0
  %6 = call noundef ptr @_ZN16SystemDictionary18java_system_loaderEv()
  %7 = icmp eq ptr %6, null
  br i1 %7, label %8, label %9

8:                                                ; preds = %5
  store i1 false, ptr %1, align 1
  br label %10

9:                                                ; preds = %5
  store i1 true, ptr %1, align 1
  br label %10

10:                                               ; preds = %9, %8, %4
  %11 = load i1, ptr %1, align 1
  ret i1 %11
}