; Function Attrs: mustprogress nounwind uwtable
define hidden noundef zeroext i1 @_ZN5JVMCI20can_initialize_JVMCIEv() local_unnamed_addr #0 align 2 {
  %1 = load i8, ptr @UseJVMCINativeLibrary, align 1
  %2 = trunc i8 %1 to i1
  br i1 %2, label %6, label %3

3:                                                ; preds = %0
  %4 = tail call noundef ptr @_ZN16SystemDictionary18java_system_loaderEv() #13
  %5 = icmp ne ptr %4, null
  br label %6

6:                                                ; preds = %3, %0
  %.0 = phi i1 [ true, %0 ], [ %5, %3 ]
  ret i1 %.0
}